; Function Attrs: mustprogress nofree norecurse nosync nounwind willreturn memory(read, argmem: readwrite, inaccessiblemem: none) uwtable
define ptr @duckdb_je_arena_bin_choose(ptr noundef readonly captures(address_is_null) %0, ptr noundef readnone captures(ret: address, provenance) %1, i32 noundef %2, ptr noundef writeonly captures(address_is_null) %3) local_unnamed_addr #7 {
  %5 = icmp eq ptr %0, null
  br i1 %5, label %16, label %6

6:                                                ; preds = %4
  %7 = getelementptr inbounds nuw i8, ptr %0, i64 144
  %8 = load ptr, ptr %7, align 8, !tbaa !167
  %9 = icmp eq ptr %8, null
  br i1 %9, label %16, label %10

10:                                               ; preds = %6
  %11 = getelementptr inbounds nuw i8, ptr %0, i64 161
  %12 = zext i32 %2 to i64
  %13 = getelementptr inbounds nuw [36 x i8], ptr %11, i64 0, i64 %12
  %14 = load i8, ptr %13, align 1, !tbaa !143
  %15 = zext i8 %14 to i32
  br label %16

16:                                               ; preds = %4, %6, %10
  %.0 = phi i32 [ %15, %10 ], [ 0, %6 ], [ 0, %4 ]
  %.not = icmp eq ptr %3, null
  br i1 %.not, label %18, label %17

17:                                               ; preds = %16
  store i32 %.0, ptr %3, align 4, !tbaa !3
  br label %18

18:                                               ; preds = %17, %16
  %19 = zext i32 %2 to i64
  %20 = getelementptr inbounds nuw [36 x i32], ptr @duckdb_je_arena_bin_offsets, i64 0, i64 %19
  %21 = load i32, ptr %20, align 4, !tbaa !3
  %22 = zext i32 %21 to i64
  %23 = getelementptr inbounds nuw i8, ptr %1, i64 %22
  %24 = load i32, ptr @duckdb_je_bin_info_nbatched_sizes, align 4, !tbaa !3
  %25 = icmp ult i32 %2, %24
  %26 = zext nneg i32 %.0 to i64
  %27 = getelementptr inbounds nuw %struct.bin_with_batch_s, ptr %23, i64 %26
  %28 = getelementptr inbounds nuw %struct.bin_s, ptr %23, i64 %26
  %.0.i = select i1 %25, ptr %27, ptr %28
  ret ptr %.0.i
}